target datalayout = "e-m:e-p270:32:32-p271:32:32-p272:64:64-i64:64-i128:128-f80:128-n8:16:32:64-S128"
target triple = "x86_64-pc-linux-gnu"

%struct.SResource = type { ptr, i8, i8, i32, i32, i32, i32, i32, ptr, %struct.UString }
%struct.UString = type { ptr, i32, i32 }
%class.IntVectorResource = type { %struct.SResource, i64, i64, ptr }

; Function Attrs: mustprogress uwtable
define dso_local void @_ZN17IntVectorResourceC2EP7SRBRootPKcPK7UStringR10UErrorCode(ptr noundef nonnull align 8 dereferenceable(80) %0, ptr noundef %1, ptr noundef %2, ptr noundef %3, ptr noundef nonnull align 4 dereferenceable(4) %4) unnamed_addr #5 align 2 personality ptr @__gxx_personality_v0 {
  %6 = alloca ptr, align 8
  %7 = alloca ptr, align 8
  %8 = alloca ptr, align 8
  %9 = alloca ptr, align 8
  %10 = alloca ptr, align 8
  %11 = alloca ptr, align 8
  %12 = alloca i32, align 4
  store ptr %0, ptr %6, align 8, !tbaa !89
  store ptr %1, ptr %7, align 8, !tbaa !39
  store ptr %2, ptr %8, align 8, !tbaa !41
  store ptr %3, ptr %9, align 8, !tbaa !42
  store ptr %4, ptr %10, align 8, !tbaa !44
  %13 = load ptr, ptr %6, align 8
  %14 = load ptr, ptr %7, align 8, !tbaa !39
  %15 = load ptr, ptr %8, align 8, !tbaa !41
  %16 = load ptr, ptr %9, align 8, !tbaa !42
  %17 = load ptr, ptr %10, align 8, !tbaa !44
  call void @_ZN9SResourceC2EP7SRBRootPKcaPK7UStringR10UErrorCode(ptr noundef nonnull align 8 dereferenceable(56) %13, ptr noundef %14, ptr noundef %15, i8 noundef signext 14, ptr noundef %16, ptr noundef nonnull align 4 dereferenceable(4) %17)
  store ptr getelementptr inbounds inrange(-16, 64) ({ [10 x ptr] }, ptr @_ZTV17IntVectorResource, i32 0, i32 0, i32 2), ptr %13, align 8, !tbaa !26
  %18 = getelementptr inbounds nuw %class.IntVectorResource, ptr %13, i32 0, i32 1
  store i64 0, ptr %18, align 8, !tbaa !91
  %19 = getelementptr inbounds nuw %class.IntVectorResource, ptr %13, i32 0, i32 2
  store i64 2048, ptr %19, align 8, !tbaa !94
  %20 = getelementptr inbounds nuw %class.IntVectorResource, ptr %13, i32 0, i32 3
  %21 = getelementptr inbounds nuw %class.IntVectorResource, ptr %13, i32 0, i32 2
  %22 = load i64, ptr %21, align 8, !tbaa !94
  %23 = call { i64, i1 } @llvm.umul.with.overflow.i64(i64 %22, i64 4)
  %24 = extractvalue { i64, i1 } %23, 1
  %25 = extractvalue { i64, i1 } %23, 0
  %26 = select i1 %24, i64 -1, i64 %25
  %27 = invoke noalias noundef nonnull ptr @_Znam(i64 noundef %26) #24
          to label %28 unwind label %34

28:                                               ; preds = %5
  store ptr %27, ptr %20, align 8, !tbaa !95
  %29 = getelementptr inbounds nuw %class.IntVectorResource, ptr %13, i32 0, i32 3
  %30 = load ptr, ptr %29, align 8, !tbaa !95
  %31 = icmp eq ptr %30, null
  br i1 %31, label %32, label %38

32:                                               ; preds = %28
  %33 = load ptr, ptr %10, align 8, !tbaa !44
  store i32 7, ptr %33, align 4, !tbaa !45
  br label %38

34:                                               ; preds = %5
  %35 = landingpad { ptr, i32 }
          cleanup
  %36 = extractvalue { ptr, i32 } %35, 0
  store ptr %36, ptr %11, align 8
  %37 = extractvalue { ptr, i32 } %35, 1
  store i32 %37, ptr %12, align 4
  call void @_ZN9SResourceD2Ev(ptr noundef nonnull align 8 dereferenceable(56) %13) #3
  br label %39

38:                                               ; preds = %32, %28
  ret void

39:                                               ; preds = %34
  %40 = load ptr, ptr %11, align 8
  %41 = load i32, ptr %12, align 4
  %42 = insertvalue { ptr, i32 } poison, ptr %40, 0
  %43 = insertvalue { ptr, i32 } %42, i32 %41, 1
  resume { ptr, i32 } %43
}