; Function Attrs: mustprogress uwtable
define dso_local void @_ZN17IntVectorResourceC2EP7SRBRootPKcPK7UStringR10UErrorCode(ptr noundef nonnull align 8 dereferenceable(80) initializes((0, 10), (12, 40)) %0, ptr noundef %1, ptr noundef %2, ptr noundef %3, ptr noundef nonnull align 4 dereferenceable(4) %4) unnamed_addr #7 align 2 personality ptr @__gxx_personality_v0 {
  tail call void @_ZN9SResourceC2EP7SRBRootPKcaPK7UStringR10UErrorCode(ptr noundef nonnull align 8 dereferenceable(56) %0, ptr noundef %1, ptr noundef %2, i8 noundef signext 14, ptr noundef %3, ptr noundef nonnull align 4 dereferenceable(4) %4)
  store ptr getelementptr inbounds nuw inrange(-16, 64) (i8, ptr @_ZTV17IntVectorResource, i64 16), ptr %0, align 8, !tbaa !9
  %6 = getelementptr inbounds nuw i8, ptr %0, i64 56
  store i64 0, ptr %6, align 8, !tbaa !53
  %7 = getelementptr inbounds nuw i8, ptr %0, i64 64
  store i64 2048, ptr %7, align 8, !tbaa !57
  %8 = invoke noalias noundef nonnull dereferenceable(8192) ptr @_Znam(i64 noundef 8192) #36
          to label %9 unwind label %11

9:                                                ; preds = %5
  %10 = getelementptr inbounds nuw i8, ptr %0, i64 72
  store ptr %8, ptr %10, align 8, !tbaa !58
  ret void

11:                                               ; preds = %5
  %12 = landingpad { ptr, i32 }
          cleanup
  tail call void @_ZN9SResourceD2Ev(ptr noundef nonnull align 8 dereferenceable(56) %0) #34
  resume { ptr, i32 } %12
}